; Function Attrs: mustprogress nofree norecurse nosync nounwind willreturn memory(read, inaccessiblemem: none) uwtable
define noundef zeroext i1 @_ZN6icu_776number4impl10AffixUtils7hasNextERKNS1_8AffixTagERKNS_13UnicodeStringE(ptr noundef nonnull readonly align 4 captures(none) dereferenceable(16) %0, ptr noundef nonnull readonly align 8 captures(none) dereferenceable(64) %1) local_unnamed_addr #9 align 2 {
  %3 = load i32, ptr %0, align 4, !tbaa !17
  %4 = icmp slt i32 %3, 0
  br i1 %4, label %51, label %5

5:                                                ; preds = %2
  %6 = icmp eq i32 %3, 0
  br i1 %6, label %7, label %17

7:                                                ; preds = %5
  %8 = getelementptr inbounds nuw i8, ptr %1, i64 8
  %9 = load i16, ptr %8, align 8, !tbaa !3
  %10 = icmp slt i16 %9, 0
  %11 = ashr i16 %9, 5
  %12 = sext i16 %11 to i32
  %13 = getelementptr inbounds nuw i8, ptr %1, i64 12
  %14 = load i32, ptr %13, align 4
  %15 = select i1 %10, i32 %14, i32 %12
  %16 = icmp sgt i32 %15, 0
  br label %51

17:                                               ; preds = %5
  %18 = getelementptr inbounds nuw i8, ptr %0, i64 8
  %19 = load i32, ptr %18, align 4, !tbaa !22
  switch i32 %19, label %51 [
    i32 2, label %20
    i32 0, label %41
  ]

20:                                               ; preds = %17
  %21 = getelementptr inbounds nuw i8, ptr %1, i64 8
  %22 = load i16, ptr %21, align 8, !tbaa !3
  %23 = icmp slt i16 %22, 0
  %24 = ashr i16 %22, 5
  %25 = sext i16 %24 to i32
  %26 = getelementptr inbounds nuw i8, ptr %1, i64 12
  %27 = load i32, ptr %26, align 4
  %28 = select i1 %23, i32 %27, i32 %25
  %29 = add nsw i32 %28, -1
  %30 = icmp eq i32 %3, %29
  %31 = icmp ult i32 %3, %28
  %or.cond = and i1 %31, %30
  br i1 %or.cond, label %_ZNK6icu_7713UnicodeString6charAtEi.exit, label %.thread

_ZNK6icu_7713UnicodeString6charAtEi.exit:         ; preds = %20
  %32 = and i16 %22, 2
  %.not.i.i.i = icmp eq i16 %32, 0
  %33 = getelementptr inbounds nuw i8, ptr %1, i64 10
  %34 = getelementptr inbounds nuw i8, ptr %1, i64 24
  %35 = load ptr, ptr %34, align 8
  %36 = select i1 %.not.i.i.i, ptr %35, ptr %33
  %37 = zext nneg i32 %3 to i64
  %38 = getelementptr inbounds nuw i16, ptr %36, i64 %37
  %39 = load i16, ptr %38, align 2, !tbaa !13
  %40 = icmp eq i16 %39, 39
  br i1 %40, label %51, label %.thread

.thread:                                          ; preds = %_ZNK6icu_7713UnicodeString6charAtEi.exit, %20
  br label %51

41:                                               ; preds = %17
  %42 = getelementptr inbounds nuw i8, ptr %1, i64 8
  %43 = load i16, ptr %42, align 8, !tbaa !3
  %44 = icmp slt i16 %43, 0
  %45 = ashr i16 %43, 5
  %46 = sext i16 %45 to i32
  %47 = getelementptr inbounds nuw i8, ptr %1, i64 12
  %48 = load i32, ptr %47, align 4
  %49 = select i1 %44, i32 %48, i32 %46
  %50 = icmp slt i32 %3, %49
  br label %51

51:                                               ; preds = %17, %.thread, %_ZNK6icu_7713UnicodeString6charAtEi.exit, %2, %41, %7
  %.0 = phi i1 [ %16, %7 ], [ %50, %41 ], [ false, %2 ], [ false, %_ZNK6icu_7713UnicodeString6charAtEi.exit ], [ true, %.thread ], [ true, %17 ]
  ret i1 %.0
}